target datalayout = "e-m:e-p270:32:32-p271:32:32-p272:64:64-i64:64-i128:128-f80:128-n8:16:32:64-S128"
target triple = "x86_64-pc-linux-gnu"

%class.anon.732 = type { ptr, ptr, ptr }

; Function Attrs: mustprogress nounwind uwtable
define internal noundef i32 @"_ZZN12_GLOBAL__N_122TGlslangToSpvTraverser14visitAggregateEN7glslang6TVisitEPNS1_16TIntermAggregateEENK3$_0clEv"(ptr noundef nonnull align 8 dereferenceable(24) %0) #4 align 2 {
  %2 = alloca ptr, align 8
  store ptr %0, ptr %2, align 8
  %3 = load ptr, ptr %2, align 8
  %4 = getelementptr inbounds %class.anon.732, ptr %3, i32 0, i32 2
  %5 = load ptr, ptr %4, align 8
  %6 = getelementptr inbounds %class.anon.732, ptr %3, i32 0, i32 0
  %7 = load ptr, ptr %6, align 8
  %8 = load i32, ptr %7, align 4
  %9 = icmp ne i32 %8, 0
  br i1 %9, label %10, label %14

10:                                               ; preds = %1
  %11 = getelementptr inbounds %class.anon.732, ptr %3, i32 0, i32 0
  %12 = load ptr, ptr %11, align 8
  %13 = load i32, ptr %12, align 4
  br label %23

14:                                               ; preds = %1
  %15 = getelementptr inbounds %class.anon.732, ptr %3, i32 0, i32 1
  %16 = load ptr, ptr %15, align 8
  %17 = load ptr, ptr %16, align 8
  %18 = load ptr, ptr %17, align 8
  %19 = getelementptr inbounds ptr, ptr %18, i64 30
  %20 = load ptr, ptr %19, align 8
  %21 = call noundef nonnull align 8 dereferenceable(152) ptr %20(ptr noundef nonnull align 8 dereferenceable(184) %17)
  %22 = call noundef i32 @_ZN12_GLOBAL__N_122TGlslangToSpvTraverser23convertGlslangToSpvTypeERKN7glslang5TTypeEb(ptr noundef nonnull align 8 dereferenceable(3528) %5, ptr noundef nonnull align 8 dereferenceable(152) %21, i1 noundef zeroext false)
  br label %23

23:                                               ; preds = %14, %10
  %24 = phi i32 [ %13, %10 ], [ %22, %14 ]
  ret i32 %24
}